target datalayout = "e-m:e-p270:32:32-p271:32:32-p272:64:64-i64:64-i128:128-f80:128-n8:16:32:64-S128"
target triple = "x86_64-pc-linux-gnu"

%"class.gmx::VirtualSitesHandler::Impl" = type { i32, %"struct.gmx::DomainInfo", %"class.gmx::ArrayRef", %"class.gmx::ArrayRef.2", %"class.gmx::ThreadingInfo" }
%"struct.gmx::DomainInfo" = type { i32, i8, ptr }
%"class.gmx::ArrayRef" = type { %"struct.gmx::ArrayRefIter", %"struct.gmx::ArrayRefIter" }
%"struct.gmx::ArrayRefIter" = type { ptr }
%"class.gmx::ArrayRef.2" = type { %"struct.gmx::ArrayRefIter.3", %"struct.gmx::ArrayRefIter.3" }
%"struct.gmx::ArrayRefIter.3" = type { ptr }
%"class.gmx::ThreadingInfo" = type { i32, %"class.std::vector", %"class.std::vector.5" }
%"class.std::vector" = type { %"struct.std::_Vector_base" }
%"struct.std::_Vector_base" = type { %"struct.std::_Vector_base<std::unique_ptr<gmx::VsiteThread>, std::allocator<std::unique_ptr<gmx::VsiteThread>>>::_Vector_impl" }
%"struct.std::_Vector_base<std::unique_ptr<gmx::VsiteThread>, std::allocator<std::unique_ptr<gmx::VsiteThread>>>::_Vector_impl" = type { %"struct.std::_Vector_base<std::unique_ptr<gmx::VsiteThread>, std::allocator<std::unique_ptr<gmx::VsiteThread>>>::_Vector_impl_data" }
%"struct.std::_Vector_base<std::unique_ptr<gmx::VsiteThread>, std::allocator<std::unique_ptr<gmx::VsiteThread>>>::_Vector_impl_data" = type { ptr, ptr, ptr }
%"class.std::vector.5" = type { %"struct.std::_Vector_base.6" }
%"struct.std::_Vector_base.6" = type { %"struct.std::_Vector_base<int, std::allocator<int>>::_Vector_impl" }
%"struct.std::_Vector_base<int, std::allocator<int>>::_Vector_impl" = type { %"struct.std::_Vector_base<int, std::allocator<int>>::_Vector_impl_data" }
%"struct.std::_Vector_base<int, std::allocator<int>>::_Vector_impl_data" = type { ptr, ptr, ptr }
%struct.InteractionList = type { %"class.std::vector.5" }
%"class.gmx::ArrayRef.280" = type { %"struct.gmx::ArrayRefIter.281", %"struct.gmx::ArrayRefIter.281" }
%"struct.gmx::ArrayRefIter.281" = type { ptr }

; Function Attrs: mustprogress nounwind uwtable
define linkonce_odr noundef i64 @_ZNK3gmx12ArrayRefIterIK12ParticleTypeEmiES3_(ptr noundef nonnull align 8 dereferenceable(8) %0, ptr %1) #0 comdat align 2 {
  %3 = alloca %"struct.gmx::ArrayRefIter.281", align 8
  %4 = alloca ptr, align 8
  %5 = getelementptr inbounds nuw %"struct.gmx::ArrayRefIter.281", ptr %3, i32 0, i32 0
  store ptr %1, ptr %5, align 8
  store ptr %0, ptr %4, align 8, !tbaa !627
  %6 = load ptr, ptr %4, align 8
  %7 = getelementptr inbounds nuw %"struct.gmx::ArrayRefIter.281", ptr %6, i32 0, i32 0
  %8 = load ptr, ptr %7, align 8, !tbaa !629
  %9 = getelementptr inbounds nuw %"struct.gmx::ArrayRefIter.281", ptr %3, i32 0, i32 0
  %10 = load ptr, ptr %9, align 8, !tbaa !629
  %11 = ptrtoint ptr %8 to i64
  %12 = ptrtoint ptr %10 to i64
  %13 = sub i64 %11, %12
  %14 = sdiv exact i64 %13, 4
  ret i64 %14
}

; Function Attrs: mustprogress nounwind uwtable
define linkonce_odr noundef ptr @_ZNK3gmx12ArrayRefIterIK12ParticleTypeE4dataEv(ptr noundef nonnull align 8 dereferenceable(8) %0) #0 comdat align 2 {
  %2 = alloca ptr, align 8
  store ptr %0, ptr %2, align 8, !tbaa !627
  %3 = load ptr, ptr %2, align 8
  %4 = getelementptr inbounds nuw %"struct.gmx::ArrayRefIter.281", ptr %3, i32 0, i32 0
  %5 = load ptr, ptr %4, align 8, !tbaa !629
  ret ptr %5
}

; Function Attrs: mustprogress nounwind uwtable
define linkonce_odr noundef i64 @_ZNK3gmx12ArrayRefIterIK15InteractionListEmiES3_(ptr noundef nonnull align 8 dereferenceable(8) %0, ptr %1) #0 comdat align 2 {
  %3 = alloca %"struct.gmx::ArrayRefIter.3", align 8
  %4 = alloca ptr, align 8
  %5 = getelementptr inbounds nuw %"struct.gmx::ArrayRefIter.3", ptr %3, i32 0, i32 0
  store ptr %1, ptr %5, align 8
  store ptr %0, ptr %4, align 8, !tbaa !223
  %6 = load ptr, ptr %4, align 8
  %7 = getelementptr inbounds nuw %"struct.gmx::ArrayRefIter.3", ptr %6, i32 0, i32 0
  %8 = load ptr, ptr %7, align 8, !tbaa !225
  %9 = getelementptr inbounds nuw %"struct.gmx::ArrayRefIter.3", ptr %3, i32 0, i32 0
  %10 = load ptr, ptr %9, align 8, !tbaa !225
  %11 = ptrtoint ptr %8 to i64
  %12 = ptrtoint ptr %10 to i64
  %13 = sub i64 %11, %12
  %14 = sdiv exact i64 %13, 24
  ret i64 %14
}

; Function Attrs: mustprogress nounwind uwtable
define linkonce_odr noundef ptr @_ZNK3gmx12ArrayRefIterIK15InteractionListE4dataEv(ptr noundef nonnull align 8 dereferenceable(8) %0) #0 comdat align 2 {
  %2 = alloca ptr, align 8
  store ptr %0, ptr %2, align 8, !tbaa !223
  %3 = load ptr, ptr %2, align 8
  %4 = getelementptr inbounds nuw %"struct.gmx::ArrayRefIter.3", ptr %3, i32 0, i32 0
  %5 = load ptr, ptr %4, align 8, !tbaa !225
  ret ptr %5
}

; Function Attrs: mustprogress nounwind uwtable
define linkonce_odr noundef i64 @_ZNK3gmx8ArrayRefIK12ParticleTypeE4sizeEv(ptr noundef nonnull align 8 dereferenceable(16) %0) #0 comdat align 2 {
  %2 = alloca ptr, align 8
  %3 = alloca %"struct.gmx::ArrayRefIter.281", align 8
  store ptr %0, ptr %2, align 8, !tbaa !603
  %4 = load ptr, ptr %2, align 8
  %5 = getelementptr inbounds nuw %"class.gmx::ArrayRef.280", ptr %4, i32 0, i32 1
  %6 = getelementptr inbounds nuw %"class.gmx::ArrayRef.280", ptr %4, i32 0, i32 0
  call void @llvm.memcpy.p0.p0.i64(ptr align 8 %3, ptr align 8 %6, i64 8, i1 false)
  %7 = getelementptr inbounds nuw %"struct.gmx::ArrayRefIter.281", ptr %3, i32 0, i32 0
  %8 = load ptr, ptr %7, align 8
  %9 = call noundef i64 @_ZNK3gmx12ArrayRefIterIK12ParticleTypeEmiES3_(ptr noundef nonnull align 8 dereferenceable(8) %5, ptr %8) #12
  ret i64 %9
}

; Function Attrs: mustprogress nounwind uwtable
define linkonce_odr void @_ZN3gmx12ArrayRefIterIK12ParticleTypeEC2EPS2_(ptr noundef nonnull align 8 dereferenceable(8) %0, ptr noundef %1) unnamed_addr #0 comdat align 2 {
  %3 = alloca ptr, align 8
  %4 = alloca ptr, align 8
  store ptr %0, ptr %3, align 8, !tbaa !627
  store ptr %1, ptr %4, align 8, !tbaa !217
  %5 = load ptr, ptr %3, align 8
  %6 = getelementptr inbounds nuw %"struct.gmx::ArrayRefIter.281", ptr %5, i32 0, i32 0
  %7 = load ptr, ptr %4, align 8, !tbaa !217
  store ptr %7, ptr %6, align 8, !tbaa !629
  ret void
}

; Function Attrs: mustprogress nounwind uwtable
define linkonce_odr noundef ptr @_ZNK3gmx8ArrayRefIK12ParticleTypeE4dataEv(ptr noundef nonnull align 8 dereferenceable(16) %0) #0 comdat align 2 {
  %2 = alloca ptr, align 8
  store ptr %0, ptr %2, align 8, !tbaa !603
  %3 = load ptr, ptr %2, align 8
  %4 = getelementptr inbounds nuw %"class.gmx::ArrayRef.280", ptr %3, i32 0, i32 0
  %5 = call noundef ptr @_ZNK3gmx12ArrayRefIterIK12ParticleTypeE4dataEv(ptr noundef nonnull align 8 dereferenceable(8) %4) #12
  ret ptr %5
}

; Function Attrs: mustprogress nounwind uwtable
define linkonce_odr noundef i64 @_ZNK3gmx8ArrayRefIK15InteractionListE4sizeEv(ptr noundef nonnull align 8 dereferenceable(16) %0) #0 comdat align 2 {
  %2 = alloca ptr, align 8
  %3 = alloca %"struct.gmx::ArrayRefIter.3", align 8
  store ptr %0, ptr %2, align 8, !tbaa !193
  %4 = load ptr, ptr %2, align 8
  %5 = getelementptr inbounds nuw %"class.gmx::ArrayRef.2", ptr %4, i32 0, i32 1
  %6 = getelementptr inbounds nuw %"class.gmx::ArrayRef.2", ptr %4, i32 0, i32 0
  call void @llvm.memcpy.p0.p0.i64(ptr align 8 %3, ptr align 8 %6, i64 8, i1 false)
  %7 = getelementptr inbounds nuw %"struct.gmx::ArrayRefIter.3", ptr %3, i32 0, i32 0
  %8 = load ptr, ptr %7, align 8
  %9 = call noundef i64 @_ZNK3gmx12ArrayRefIterIK15InteractionListEmiES3_(ptr noundef nonnull align 8 dereferenceable(8) %5, ptr %8) #12
  ret i64 %9
}

; Function Attrs: mustprogress nounwind uwtable
define linkonce_odr void @_ZN3gmx12ArrayRefIterIK15InteractionListEC2EPS2_(ptr noundef nonnull align 8 dereferenceable(8) %0, ptr noundef %1) unnamed_addr #0 comdat align 2 {
  %3 = alloca ptr, align 8
  %4 = alloca ptr, align 8
  store ptr %0, ptr %3, align 8, !tbaa !223
  store ptr %1, ptr %4, align 8, !tbaa !137
  %5 = load ptr, ptr %3, align 8
  %6 = getelementptr inbounds nuw %"struct.gmx::ArrayRefIter.3", ptr %5, i32 0, i32 0
  %7 = load ptr, ptr %4, align 8, !tbaa !137
  store ptr %7, ptr %6, align 8, !tbaa !225
  ret void
}

; Function Attrs: mustprogress nounwind uwtable
define linkonce_odr noundef ptr @_ZNK3gmx8ArrayRefIK15InteractionListE4dataEv(ptr noundef nonnull align 8 dereferenceable(16) %0) #0 comdat align 2 {
  %2 = alloca ptr, align 8
  store ptr %0, ptr %2, align 8, !tbaa !193
  %3 = load ptr, ptr %2, align 8
  %4 = getelementptr inbounds nuw %"class.gmx::ArrayRef.2", ptr %3, i32 0, i32 0
  %5 = call noundef ptr @_ZNK3gmx12ArrayRefIterIK15InteractionListE4dataEv(ptr noundef nonnull align 8 dereferenceable(8) %4) #12
  ret ptr %5
}

; Function Attrs: mustprogress nounwind uwtable
define linkonce_odr noundef zeroext i1 @_ZNK3gmx10DomainInfo9useDomdecEv(ptr noundef nonnull align 8 dereferenceable(16) %0) #0 comdat align 2 {
  %2 = alloca ptr, align 8
  store ptr %0, ptr %2, align 8, !tbaa !163
  %3 = load ptr, ptr %2, align 8
  %4 = getelementptr inbounds nuw %"struct.gmx::DomainInfo", ptr %3, i32 0, i32 2
  %5 = load ptr, ptr %4, align 8, !tbaa !170
  %6 = icmp ne ptr %5, null
  ret i1 %6
}

; Function Attrs: mustprogress uwtable
define linkonce_odr void @_ZN3gmx8ArrayRefIK12ParticleTypeEC2IRS3_vEEOT_(ptr noundef nonnull align 8 dereferenceable(16) %0, ptr noundef nonnull align 8 dereferenceable(16) %1) unnamed_addr #6 comdat align 2 {
  %3 = alloca ptr, align 8
  %4 = alloca ptr, align 8
  store ptr %0, ptr %3, align 8, !tbaa !603
  store ptr %1, ptr %4, align 8, !tbaa !603
  %5 = load ptr, ptr %3, align 8
  %6 = getelementptr inbounds nuw %"class.gmx::ArrayRef.280", ptr %5, i32 0, i32 0
  %7 = load ptr, ptr %4, align 8, !tbaa !603
  %8 = call noundef ptr @_ZNK3gmx8ArrayRefIK12ParticleTypeE4dataEv(ptr noundef nonnull align 8 dereferenceable(16) %7)
  call void @_ZN3gmx12ArrayRefIterIK12ParticleTypeEC2EPS2_(ptr noundef nonnull align 8 dereferenceable(8) %6, ptr noundef %8) #12
  %9 = getelementptr inbounds nuw %"class.gmx::ArrayRef.280", ptr %5, i32 0, i32 1
  %10 = load ptr, ptr %4, align 8, !tbaa !603
  %11 = call noundef ptr @_ZNK3gmx8ArrayRefIK12ParticleTypeE4dataEv(ptr noundef nonnull align 8 dereferenceable(16) %10)
  %12 = load ptr, ptr %4, align 8, !tbaa !603
  %13 = call noundef i64 @_ZNK3gmx8ArrayRefIK12ParticleTypeE4sizeEv(ptr noundef nonnull align 8 dereferenceable(16) %12)
  %14 = getelementptr inbounds nuw i32, ptr %11, i64 %13
  call void @_ZN3gmx12ArrayRefIterIK12ParticleTypeEC2EPS2_(ptr noundef nonnull align 8 dereferenceable(8) %9, ptr noundef %14) #12
  ret void
}

; Function Attrs: mustprogress uwtable
define linkonce_odr void @_ZN3gmx8ArrayRefIK15InteractionListEC2IRS3_vEEOT_(ptr noundef nonnull align 8 dereferenceable(16) %0, ptr noundef nonnull align 8 dereferenceable(16) %1) unnamed_addr #6 comdat align 2 {
  %3 = alloca ptr, align 8
  %4 = alloca ptr, align 8
  store ptr %0, ptr %3, align 8, !tbaa !193
  store ptr %1, ptr %4, align 8, !tbaa !193
  %5 = load ptr, ptr %3, align 8
  %6 = getelementptr inbounds nuw %"class.gmx::ArrayRef.2", ptr %5, i32 0, i32 0
  %7 = load ptr, ptr %4, align 8, !tbaa !193
  %8 = call noundef ptr @_ZNK3gmx8ArrayRefIK15InteractionListE4dataEv(ptr noundef nonnull align 8 dereferenceable(16) %7)
  call void @_ZN3gmx12ArrayRefIterIK15InteractionListEC2EPS2_(ptr noundef nonnull align 8 dereferenceable(8) %6, ptr noundef %8) #12
  %9 = getelementptr inbounds nuw %"class.gmx::ArrayRef.2", ptr %5, i32 0, i32 1
  %10 = load ptr, ptr %4, align 8, !tbaa !193
  %11 = call noundef ptr @_ZNK3gmx8ArrayRefIK15InteractionListE4dataEv(ptr noundef nonnull align 8 dereferenceable(16) %10)
  %12 = load ptr, ptr %4, align 8, !tbaa !193
  %13 = call noundef i64 @_ZNK3gmx8ArrayRefIK15InteractionListE4sizeEv(ptr noundef nonnull align 8 dereferenceable(16) %12)
  %14 = getelementptr inbounds nuw %struct.InteractionList, ptr %11, i64 %13
  call void @_ZN3gmx12ArrayRefIterIK15InteractionListEC2EPS2_(ptr noundef nonnull align 8 dereferenceable(8) %9, ptr noundef %14) #12
  ret void
}

; Function Attrs: mustprogress uwtable
define void @_ZN3gmx19VirtualSitesHandler4Impl15setVirtualSitesENS_8ArrayRefIK15InteractionListEEiiNS2_IK12ParticleTypeEE(ptr noundef nonnull align 8 dereferenceable(112) %0, ptr %1, ptr %2, i32 noundef %3, i32 noundef %4, ptr noundef byval(%"class.gmx::ArrayRef.280") align 8 %5) #6 align 2 {
  %7 = alloca %"class.gmx::ArrayRef.2", align 8
  %8 = alloca ptr, align 8
  %9 = alloca i32, align 4
  %10 = alloca i32, align 4
  %11 = alloca %"class.gmx::ArrayRef.2", align 8
  %12 = alloca %"class.gmx::ArrayRef", align 8
  %13 = alloca %"class.gmx::ArrayRef.280", align 8
  %14 = getelementptr inbounds nuw { ptr, ptr }, ptr %7, i32 0, i32 0
  store ptr %1, ptr %14, align 8
  %15 = getelementptr inbounds nuw { ptr, ptr }, ptr %7, i32 0, i32 1
  store ptr %2, ptr %15, align 8
  store ptr %0, ptr %8, align 8, !tbaa !14
  store i32 %3, ptr %9, align 4, !tbaa !127
  store i32 %4, ptr %10, align 4, !tbaa !127
  %16 = load ptr, ptr %8, align 8
  %17 = getelementptr inbounds nuw %"class.gmx::VirtualSitesHandler::Impl", ptr %16, i32 0, i32 3
  call void @llvm.memcpy.p0.p0.i64(ptr align 8 %17, ptr align 8 %7, i64 16, i1 false)
  %18 = getelementptr inbounds nuw %"class.gmx::VirtualSitesHandler::Impl", ptr %16, i32 0, i32 4
  call void @_ZN3gmx8ArrayRefIK15InteractionListEC2IRS3_vEEOT_(ptr noundef nonnull align 8 dereferenceable(16) %11, ptr noundef nonnull align 8 dereferenceable(16) %7)
  %19 = getelementptr inbounds nuw %"class.gmx::VirtualSitesHandler::Impl", ptr %16, i32 0, i32 2
  call void @llvm.memcpy.p0.p0.i64(ptr align 8 %12, ptr align 8 %19, i64 16, i1 false)
  %20 = load i32, ptr %9, align 4, !tbaa !127
  %21 = load i32, ptr %10, align 4, !tbaa !127
  call void @_ZN3gmx8ArrayRefIK12ParticleTypeEC2IRS3_vEEOT_(ptr noundef nonnull align 8 dereferenceable(16) %13, ptr noundef nonnull align 8 dereferenceable(16) %5)
  %22 = getelementptr inbounds nuw %"class.gmx::VirtualSitesHandler::Impl", ptr %16, i32 0, i32 1
  %23 = call noundef zeroext i1 @_ZNK3gmx10DomainInfo9useDomdecEv(ptr noundef nonnull align 8 dereferenceable(16) %22)
  %24 = getelementptr inbounds nuw { ptr, ptr }, ptr %11, i32 0, i32 0
  %25 = load ptr, ptr %24, align 8
  %26 = getelementptr inbounds nuw { ptr, ptr }, ptr %11, i32 0, i32 1
  %27 = load ptr, ptr %26, align 8
  %28 = getelementptr inbounds nuw { ptr, ptr }, ptr %12, i32 0, i32 0
  %29 = load ptr, ptr %28, align 8
  %30 = getelementptr inbounds nuw { ptr, ptr }, ptr %12, i32 0, i32 1
  %31 = load ptr, ptr %30, align 8
  call void @_ZN3gmx13ThreadingInfo15setVirtualSitesENS_8ArrayRefIK15InteractionListEENS1_IK9t_iparamsEEiiNS1_IK12ParticleTypeEEb(ptr noundef nonnull align 8 dereferenceable(56) %18, ptr %25, ptr %27, ptr %29, ptr %31, i32 noundef %20, i32 noundef %21, ptr noundef byval(%"class.gmx::ArrayRef.280") align 8 %13, i1 noundef zeroext %23)
  ret void
}