; Function Attrs: mustprogress uwtable
define void @_ZN3gmx19VirtualSitesHandler4Impl15setVirtualSitesENS_8ArrayRefIK15InteractionListEEiiNS2_IK12ParticleTypeEE(ptr noundef nonnull align 8 dereferenceable(112) initializes((40, 56)) %0, ptr %1, ptr %2, i32 noundef %3, i32 noundef %4, ptr noundef readonly byval(%"class.gmx::ArrayRef.280") align 8 captures(none) %5) local_unnamed_addr #8 align 2 {
  %7 = alloca %"class.gmx::ArrayRef.280", align 8
  %8 = getelementptr inbounds nuw i8, ptr %0, i64 40
  store ptr %1, ptr %8, align 8
  %.sroa.3.0..sroa_idx = getelementptr inbounds nuw i8, ptr %0, i64 48
  store ptr %2, ptr %.sroa.3.0..sroa_idx, align 8
  %9 = getelementptr inbounds nuw i8, ptr %0, i64 56
  %10 = ptrtoint ptr %2 to i64
  %11 = ptrtoint ptr %1 to i64
  %12 = sub i64 %10, %11
  %13 = getelementptr inbounds nuw i8, ptr %1, i64 %12
  %14 = getelementptr inbounds nuw i8, ptr %0, i64 24
  %.sroa.0.0.copyload = load ptr, ptr %14, align 8
  %.sroa.2.0..sroa_idx = getelementptr inbounds nuw i8, ptr %0, i64 32
  %.sroa.2.0.copyload = load ptr, ptr %.sroa.2.0..sroa_idx, align 8
  %15 = load ptr, ptr %5, align 8, !tbaa !301
  store ptr %15, ptr %7, align 8, !tbaa !301
  %16 = getelementptr inbounds nuw i8, ptr %7, i64 8
  %17 = getelementptr inbounds nuw i8, ptr %5, i64 8
  %18 = load ptr, ptr %17, align 8, !tbaa !301
  %19 = ptrtoint ptr %18 to i64
  %20 = ptrtoint ptr %15 to i64
  %21 = sub i64 %19, %20
  %22 = getelementptr inbounds nuw i8, ptr %15, i64 %21
  store ptr %22, ptr %16, align 8, !tbaa !301
  %23 = getelementptr inbounds nuw i8, ptr %0, i64 16
  %24 = load ptr, ptr %23, align 8, !tbaa !60
  %25 = icmp ne ptr %24, null
  tail call void @_ZN3gmx13ThreadingInfo15setVirtualSitesENS_8ArrayRefIK15InteractionListEENS1_IK9t_iparamsEEiiNS1_IK12ParticleTypeEEb(ptr noundef nonnull align 8 dereferenceable(56) %9, ptr %1, ptr %13, ptr %.sroa.0.0.copyload, ptr %.sroa.2.0.copyload, i32 noundef %3, i32 noundef %4, ptr noundef nonnull byval(%"class.gmx::ArrayRef.280") align 8 %7, i1 noundef zeroext %25)
  ret void
}